target datalayout = "e-m:e-p270:32:32-p271:32:32-p272:64:64-i64:64-i128:128-f80:128-n8:16:32:64-S128"
target triple = "x86_64-pc-linux-gnu"

; Function Attrs: nounwind uwtable
define internal void @_lib_help_button_clicked(ptr noundef %0, ptr noundef %1) #0 {
  %3 = alloca ptr, align 8
  %4 = alloca ptr, align 8
  store ptr %0, ptr %3, align 8, !tbaa !68
  store ptr %1, ptr %4, align 8, !tbaa !92
  %5 = load ptr, ptr %3, align 8, !tbaa !68
  %6 = call i64 @gtk_toggle_button_get_type() #11
  %7 = call ptr @g_type_check_instance_cast(ptr noundef %5, i64 noundef %6)
  %8 = call i32 @gtk_toggle_button_get_active(ptr noundef %7)
  %9 = icmp ne i32 %8, 0
  br i1 %9, label %10, label %12

10:                                               ; preds = %2
  call void @dt_control_change_cursor(i32 noundef 0)
  call void (...) @dt_control_forbid_change_cursor()
  %11 = load ptr, ptr %4, align 8, !tbaa !92
  call void @gdk_event_handler_set(ptr noundef @_main_do_event_help, ptr noundef %11, ptr noundef null)
  br label %13

12:                                               ; preds = %2
  call void (...) @dt_control_allow_change_cursor()
  call void @dt_control_change_cursor(i32 noundef 68)
  call void @gdk_event_handler_set(ptr noundef @gtk_main_do_event, ptr noundef null, ptr noundef null)
  br label %13

13:                                               ; preds = %12, %10
  ret void
}